target datalayout = "e-m:e-p270:32:32-p271:32:32-p272:64:64-i64:64-i128:128-f80:128-n8:16:32:64-S128"
target triple = "x86_64-pc-linux-gnu"

%struct.FunctionCallInfoBaseData = type { ptr, ptr, ptr, i32, i8, i16, [0 x %struct.NullableDatum] }
%struct.NullableDatum = type { i64, i8 }
%struct.LargeObjectDesc = type { i32, ptr, i32, i64, i32 }

@TopTransactionResourceOwner = external global ptr, align 8
@cookies = internal global ptr null, align 8
@cookies_size = internal global i32 0, align 4
@.str.1 = private unnamed_addr constant [36 x i8] c"invalid large-object descriptor: %d\00", align 1
@.str.2 = private unnamed_addr constant [13 x i8] c"be-fsstubs.c\00", align 1
@__func__.be_lo_close = private unnamed_addr constant [12 x i8] c"be_lo_close\00", align 1

; Function Attrs: inlinehint nounwind uwtable
define internal i64 @Int32GetDatum(i32 noundef %0) #2 {
  %2 = alloca i32, align 4
  store i32 %0, ptr %2, align 4
  %3 = load i32, ptr %2, align 4
  %4 = sext i32 %3 to i64
  ret i64 %4
}

; Function Attrs: nounwind uwtable
define internal void @closeLOfd(i32 noundef %0) #0 {
  %2 = alloca i32, align 4
  %3 = alloca ptr, align 8
  store i32 %0, ptr %2, align 4
  call void @llvm.lifetime.start.p0(i64 8, ptr %3) #8
  %4 = load ptr, ptr @cookies, align 8
  %5 = load i32, ptr %2, align 4
  %6 = sext i32 %5 to i64
  %7 = getelementptr inbounds ptr, ptr %4, i64 %6
  %8 = load ptr, ptr %7, align 8
  store ptr %8, ptr %3, align 8
  %9 = load ptr, ptr @cookies, align 8
  %10 = load i32, ptr %2, align 4
  %11 = sext i32 %10 to i64
  %12 = getelementptr inbounds ptr, ptr %9, i64 %11
  store ptr null, ptr %12, align 8
  %13 = load ptr, ptr %3, align 8
  %14 = getelementptr inbounds nuw %struct.LargeObjectDesc, ptr %13, i32 0, i32 1
  %15 = load ptr, ptr %14, align 8
  %16 = icmp ne ptr %15, null
  br i1 %16, label %17, label %22

17:                                               ; preds = %1
  %18 = load ptr, ptr %3, align 8
  %19 = getelementptr inbounds nuw %struct.LargeObjectDesc, ptr %18, i32 0, i32 1
  %20 = load ptr, ptr %19, align 8
  %21 = load ptr, ptr @TopTransactionResourceOwner, align 8
  call void @UnregisterSnapshotFromOwner(ptr noundef %20, ptr noundef %21)
  br label %22

22:                                               ; preds = %17, %1
  %23 = load ptr, ptr %3, align 8
  call void @inv_close(ptr noundef %23)
  call void @llvm.lifetime.end.p0(i64 8, ptr %3) #8
  ret void
}

; Function Attrs: inlinehint nounwind uwtable
define internal i32 @DatumGetInt32(i64 noundef %0) #2 {
  %2 = alloca i64, align 8
  store i64 %0, ptr %2, align 8
  %3 = load i64, ptr %2, align 8
  %4 = trunc i64 %3 to i32
  ret i32 %4
}

; Function Attrs: nounwind uwtable
define dso_local i64 @be_lo_close(ptr noundef %0) #0 {
  %2 = alloca ptr, align 8
  %3 = alloca i32, align 4
  store ptr %0, ptr %2, align 8
  call void @llvm.lifetime.start.p0(i64 4, ptr %3) #8
  %4 = load ptr, ptr %2, align 8
  %5 = getelementptr inbounds nuw %struct.FunctionCallInfoBaseData, ptr %4, i32 0, i32 6
  %6 = getelementptr inbounds [0 x %struct.NullableDatum], ptr %5, i64 0, i64 0
  %7 = getelementptr inbounds nuw %struct.NullableDatum, ptr %6, i32 0, i32 0
  %8 = load i64, ptr %7, align 8
  %9 = call i32 @DatumGetInt32(i64 noundef %8)
  store i32 %9, ptr %3, align 4
  %10 = load i32, ptr %3, align 4
  %11 = icmp slt i32 %10, 0
  br i1 %11, label %23, label %12

12:                                               ; preds = %1
  %13 = load i32, ptr %3, align 4
  %14 = load i32, ptr @cookies_size, align 4
  %15 = icmp sge i32 %13, %14
  br i1 %15, label %23, label %16

16:                                               ; preds = %12
  %17 = load ptr, ptr @cookies, align 8
  %18 = load i32, ptr %3, align 4
  %19 = sext i32 %18 to i64
  %20 = getelementptr inbounds ptr, ptr %17, i64 %19
  %21 = load ptr, ptr %20, align 8
  %22 = icmp eq ptr %21, null
  br i1 %22, label %23, label %36

23:                                               ; preds = %16, %12, %1
  br label %24

24:                                               ; preds = %23
  br i1 true, label %25, label %27

25:                                               ; preds = %24
  %26 = call zeroext i1 @errstart_cold(i32 noundef 21, ptr noundef null) #9
  br i1 %26, label %29, label %33

27:                                               ; preds = %24
  %28 = call zeroext i1 @errstart(i32 noundef 21, ptr noundef null)
  br i1 %28, label %29, label %33

29:                                               ; preds = %27, %25
  %30 = call i32 @errcode(i32 noundef 67137668)
  %31 = load i32, ptr %3, align 4
  %32 = call i32 (ptr, ...) @errmsg(ptr noundef @.str.1, i32 noundef %31)
  call void @errfinish(ptr noundef @.str.2, i32 noundef 133, ptr noundef @__func__.be_lo_close)
  br label %33

33:                                               ; preds = %29, %27, %25
  unreachable

34:                                               ; No predecessors!
  br label %35

35:                                               ; preds = %34
  br label %36

36:                                               ; preds = %35, %16
  %37 = load i32, ptr %3, align 4
  call void @closeLOfd(i32 noundef %37)
  %38 = call i64 @Int32GetDatum(i32 noundef 0)
  call void @llvm.lifetime.end.p0(i64 4, ptr %3) #8
  ret i64 %38
}