; Function Attrs: nounwind uwtable
define dso_local noundef range(i64 -2147483648, 2147483648) i64 @be_lo_close(ptr noundef readonly captures(none) %0) local_unnamed_addr #0 {
  %2 = getelementptr inbounds nuw i8, ptr %0, i64 32
  %3 = load i64, ptr %2, align 8
  %4 = trunc i64 %3 to i32
  %5 = icmp sgt i32 %4, -1
  %6 = load i32, ptr @cookies_size, align 4
  %.not = icmp sgt i32 %6, %4
  %or.cond = select i1 %5, i1 %.not, i1 false
  br i1 %or.cond, label %7, label %13

7:                                                ; preds = %1
  %8 = load ptr, ptr @cookies, align 8
  %9 = and i64 %3, 2147483647
  %10 = getelementptr inbounds nuw ptr, ptr %8, i64 %9
  %11 = load ptr, ptr %10, align 8
  %12 = icmp eq ptr %11, null
  br i1 %12, label %13, label %17

13:                                               ; preds = %7, %1
  %14 = tail call zeroext i1 @errstart_cold(i32 noundef 21, ptr noundef null) #11
  tail call void @llvm.assume(i1 %14)
  %15 = tail call i32 @errcode(i32 noundef 67137668) #10
  %16 = tail call i32 (ptr, ...) @errmsg(ptr noundef nonnull @.str.1, i32 noundef %4) #10
  tail call void @errfinish(ptr noundef nonnull @.str.2, i32 noundef 133, ptr noundef nonnull @__func__.be_lo_close) #10
  unreachable

17:                                               ; preds = %7
  store ptr null, ptr %10, align 8
  %18 = getelementptr inbounds nuw i8, ptr %11, i64 8
  %19 = load ptr, ptr %18, align 8
  %.not.i = icmp eq ptr %19, null
  br i1 %.not.i, label %closeLOfd.exit, label %20

20:                                               ; preds = %17
  %21 = load ptr, ptr @TopTransactionResourceOwner, align 8
  tail call void @UnregisterSnapshotFromOwner(ptr noundef nonnull %19, ptr noundef %21) #10
  br label %closeLOfd.exit

closeLOfd.exit:                                   ; preds = %17, %20
  tail call void @inv_close(ptr noundef nonnull %11) #10
  ret i64 0
}